target datalayout = "e-m:e-p270:32:32-p271:32:32-p272:64:64-i64:64-i128:128-f80:128-n8:16:32:64-S128"
target triple = "x86_64-pc-linux-gnu"

%"struct.ozz::animation::offline::RawSkeleton" = type { %"class.std::vector" }
%"class.std::vector" = type { %"struct.std::_Vector_base" }
%"struct.std::_Vector_base" = type { %"struct.std::_Vector_base<ozz::animation::offline::RawSkeleton::Joint, ozz::StdAllocator<ozz::animation::offline::RawSkeleton::Joint>>::_Vector_impl" }
%"struct.std::_Vector_base<ozz::animation::offline::RawSkeleton::Joint, ozz::StdAllocator<ozz::animation::offline::RawSkeleton::Joint>>::_Vector_impl" = type { %"struct.std::_Vector_base<ozz::animation::offline::RawSkeleton::Joint, ozz::StdAllocator<ozz::animation::offline::RawSkeleton::Joint>>::_Vector_impl_data" }
%"struct.std::_Vector_base<ozz::animation::offline::RawSkeleton::Joint, ozz::StdAllocator<ozz::animation::offline::RawSkeleton::Joint>>::_Vector_impl_data" = type { ptr, ptr, ptr }

; Function Attrs: mustprogress uwtable
define dso_local void @_ZN3ozz2io6ExternINS_9animation7offline11RawSkeletonEE4LoadERNS0_8IArchiveEPS4_mj(ptr noundef nonnull align 8 dereferenceable(9) %0, ptr noundef %1, i64 noundef %2, i32 noundef %3) #0 align 2 {
  %5 = alloca ptr, align 8
  %6 = alloca ptr, align 8
  %7 = alloca i64, align 8
  %8 = alloca i32, align 4
  %9 = alloca i64, align 8
  %10 = alloca ptr, align 8
  store ptr %0, ptr %5, align 8
  store ptr %1, ptr %6, align 8
  store i64 %2, ptr %7, align 8
  store i32 %3, ptr %8, align 4
  store i64 0, ptr %9, align 8
  br label %11

11:                                               ; preds = %22, %4
  %12 = load i64, ptr %9, align 8
  %13 = load i64, ptr %7, align 8
  %14 = icmp ult i64 %12, %13
  br i1 %14, label %15, label %25

15:                                               ; preds = %11
  %16 = load ptr, ptr %6, align 8
  %17 = load i64, ptr %9, align 8
  %18 = getelementptr inbounds %"struct.ozz::animation::offline::RawSkeleton", ptr %16, i64 %17
  store ptr %18, ptr %10, align 8
  %19 = load ptr, ptr %5, align 8
  %20 = load ptr, ptr %10, align 8
  %21 = getelementptr inbounds %"struct.ozz::animation::offline::RawSkeleton", ptr %20, i32 0, i32 0
  call void @_ZN3ozz2io8IArchiversISt6vectorINS_9animation7offline11RawSkeleton5JointENS_12StdAllocatorIS7_EEEEEvRT_(ptr noundef nonnull align 8 dereferenceable(9) %19, ptr noundef nonnull align 8 dereferenceable(24) %21)
  br label %22

22:                                               ; preds = %15
  %23 = load i64, ptr %9, align 8
  %24 = add i64 %23, 1
  store i64 %24, ptr %9, align 8
  br label %11, !llvm.loop !7

25:                                               ; preds = %11
  ret void
}