; Function Attrs: mustprogress uwtable
define dso_local void @_ZN3ozz2io6ExternINS_9animation7offline11RawSkeletonEE4LoadERNS0_8IArchiveEPS4_mj(ptr noundef nonnull align 8 dereferenceable(9) %0, ptr noundef %1, i64 noundef %2, i32 noundef %3) local_unnamed_addr #0 align 2 {
  %.not = icmp eq i64 %2, 0
  br i1 %.not, label %._crit_edge, label %.lr.ph

.lr.ph:                                           ; preds = %4, %.lr.ph
  %.06 = phi i64 [ %6, %.lr.ph ], [ 0, %4 ]
  %5 = getelementptr inbounds %"struct.ozz::animation::offline::RawSkeleton", ptr %1, i64 %.06
  tail call void @_ZN3ozz2io8IArchiversISt6vectorINS_9animation7offline11RawSkeleton5JointENS_12StdAllocatorIS7_EEEEEvRT_(ptr noundef nonnull align 8 dereferenceable(9) %0, ptr noundef nonnull align 8 dereferenceable(24) %5)
  %6 = add nuw i64 %.06, 1
  %exitcond.not = icmp eq i64 %6, %2
  br i1 %exitcond.not, label %._crit_edge, label %.lr.ph, !llvm.loop !7

._crit_edge:                                      ; preds = %.lr.ph, %4
  ret void
}